target datalayout = "e-m:e-p270:32:32-p271:32:32-p272:64:64-i64:64-i128:128-f80:128-n8:16:32:64-S128"
target triple = "x86_64-pc-linux-gnu"

%struct.SEIRawAmbientViewingEnvironment = type { i32, i16, i16 }

@.str.1413 = private unnamed_addr constant [28 x i8] c"Ambient Viewing Environment\00", align 1
@.str.1414 = private unnamed_addr constant [20 x i8] c"ambient_illuminance\00", align 1
@.str.1415 = private unnamed_addr constant [16 x i8] c"ambient_light_x\00", align 1
@.str.1416 = private unnamed_addr constant [16 x i8] c"ambient_light_y\00", align 1

; Function Attrs: nounwind uwtable
define internal i32 @cbs_sei_write_ambient_viewing_environment(ptr noundef %0, ptr noundef %1, ptr noundef %2, ptr noundef %3) #0 {
  %5 = alloca i32, align 4
  %6 = alloca ptr, align 8
  %7 = alloca ptr, align 8
  %8 = alloca ptr, align 8
  %9 = alloca ptr, align 8
  %10 = alloca i32, align 4
  %11 = alloca i32, align 4
  %12 = alloca i32, align 4
  %13 = alloca i32, align 4
  %14 = alloca i32, align 4
  store ptr %0, ptr %6, align 8, !tbaa !4
  store ptr %1, ptr %7, align 8, !tbaa !70
  store ptr %2, ptr %8, align 8, !tbaa !2039
  store ptr %3, ptr %9, align 8, !tbaa !1718
  call void @llvm.lifetime.start.p0(i64 4, ptr %10) #11
  br label %15

15:                                               ; preds = %4
  %16 = load ptr, ptr %6, align 8, !tbaa !4
  call void @ff_cbs_trace_header(ptr noundef %16, ptr noundef @.str.1413)
  br label %17

17:                                               ; preds = %15
  br label %18

18:                                               ; preds = %17
  br label %19

19:                                               ; preds = %18
  call void @llvm.lifetime.start.p0(i64 4, ptr %11) #11
  %20 = load ptr, ptr %8, align 8, !tbaa !2039
  %21 = getelementptr inbounds nuw %struct.SEIRawAmbientViewingEnvironment, ptr %20, i32 0, i32 0
  %22 = load i32, ptr %21, align 4, !tbaa !2041
  store i32 %22, ptr %11, align 4, !tbaa !11
  br label %23

23:                                               ; preds = %19
  %24 = load ptr, ptr %6, align 8, !tbaa !4
  %25 = load ptr, ptr %7, align 8, !tbaa !70
  %26 = load i32, ptr %11, align 4, !tbaa !11
  %27 = call i32 @ff_cbs_write_unsigned(ptr noundef %24, ptr noundef %25, i32 noundef 32, ptr noundef @.str.1414, ptr noundef null, i32 noundef %26, i32 noundef 1, i32 noundef -1)
  store i32 %27, ptr %10, align 4, !tbaa !11
  %28 = load i32, ptr %10, align 4, !tbaa !11
  %29 = icmp slt i32 %28, 0
  br i1 %29, label %30, label %32

30:                                               ; preds = %23
  %31 = load i32, ptr %10, align 4, !tbaa !11
  store i32 %31, ptr %5, align 4
  store i32 1, ptr %12, align 4
  br label %35

32:                                               ; preds = %23
  br label %33

33:                                               ; preds = %32
  br label %34

34:                                               ; preds = %33
  store i32 0, ptr %12, align 4
  br label %35

35:                                               ; preds = %34, %30
  call void @llvm.lifetime.end.p0(i64 4, ptr %11) #11
  %36 = load i32, ptr %12, align 4
  switch i32 %36, label %84 [
    i32 0, label %37
  ]

37:                                               ; preds = %35
  br label %38

38:                                               ; preds = %37
  br label %39

39:                                               ; preds = %38
  br label %40

40:                                               ; preds = %39
  call void @llvm.lifetime.start.p0(i64 4, ptr %13) #11
  %41 = load ptr, ptr %8, align 8, !tbaa !2039
  %42 = getelementptr inbounds nuw %struct.SEIRawAmbientViewingEnvironment, ptr %41, i32 0, i32 1
  %43 = load i16, ptr %42, align 4, !tbaa !2043
  %44 = zext i16 %43 to i32
  store i32 %44, ptr %13, align 4, !tbaa !11
  br label %45

45:                                               ; preds = %40
  %46 = load ptr, ptr %6, align 8, !tbaa !4
  %47 = load ptr, ptr %7, align 8, !tbaa !70
  %48 = load i32, ptr %13, align 4, !tbaa !11
  %49 = call i32 @ff_cbs_write_unsigned(ptr noundef %46, ptr noundef %47, i32 noundef 16, ptr noundef @.str.1415, ptr noundef null, i32 noundef %48, i32 noundef 0, i32 noundef 50000)
  store i32 %49, ptr %10, align 4, !tbaa !11
  %50 = load i32, ptr %10, align 4, !tbaa !11
  %51 = icmp slt i32 %50, 0
  br i1 %51, label %52, label %54

52:                                               ; preds = %45
  %53 = load i32, ptr %10, align 4, !tbaa !11
  store i32 %53, ptr %5, align 4
  store i32 1, ptr %12, align 4
  br label %57

54:                                               ; preds = %45
  br label %55

55:                                               ; preds = %54
  br label %56

56:                                               ; preds = %55
  store i32 0, ptr %12, align 4
  br label %57

57:                                               ; preds = %56, %52
  call void @llvm.lifetime.end.p0(i64 4, ptr %13) #11
  %58 = load i32, ptr %12, align 4
  switch i32 %58, label %84 [
    i32 0, label %59
  ]

59:                                               ; preds = %57
  br label %60

60:                                               ; preds = %59
  br label %61

61:                                               ; preds = %60
  br label %62

62:                                               ; preds = %61
  call void @llvm.lifetime.start.p0(i64 4, ptr %14) #11
  %63 = load ptr, ptr %8, align 8, !tbaa !2039
  %64 = getelementptr inbounds nuw %struct.SEIRawAmbientViewingEnvironment, ptr %63, i32 0, i32 2
  %65 = load i16, ptr %64, align 2, !tbaa !2044
  %66 = zext i16 %65 to i32
  store i32 %66, ptr %14, align 4, !tbaa !11
  br label %67

67:                                               ; preds = %62
  %68 = load ptr, ptr %6, align 8, !tbaa !4
  %69 = load ptr, ptr %7, align 8, !tbaa !70
  %70 = load i32, ptr %14, align 4, !tbaa !11
  %71 = call i32 @ff_cbs_write_unsigned(ptr noundef %68, ptr noundef %69, i32 noundef 16, ptr noundef @.str.1416, ptr noundef null, i32 noundef %70, i32 noundef 0, i32 noundef 50000)
  store i32 %71, ptr %10, align 4, !tbaa !11
  %72 = load i32, ptr %10, align 4, !tbaa !11
  %73 = icmp slt i32 %72, 0
  br i1 %73, label %74, label %76

74:                                               ; preds = %67
  %75 = load i32, ptr %10, align 4, !tbaa !11
  store i32 %75, ptr %5, align 4
  store i32 1, ptr %12, align 4
  br label %79

76:                                               ; preds = %67
  br label %77

77:                                               ; preds = %76
  br label %78

78:                                               ; preds = %77
  store i32 0, ptr %12, align 4
  br label %79

79:                                               ; preds = %78, %74
  call void @llvm.lifetime.end.p0(i64 4, ptr %14) #11
  %80 = load i32, ptr %12, align 4
  switch i32 %80, label %84 [
    i32 0, label %81
  ]

81:                                               ; preds = %79
  br label %82

82:                                               ; preds = %81
  br label %83

83:                                               ; preds = %82
  store i32 0, ptr %5, align 4
  store i32 1, ptr %12, align 4
  br label %84

84:                                               ; preds = %83, %79, %57, %35
  call void @llvm.lifetime.end.p0(i64 4, ptr %10) #11
  %85 = load i32, ptr %5, align 4
  ret i32 %85
}

; Function Attrs: nounwind uwtable
define internal i32 @cbs_sei_write_ambient_viewing_environment_internal(ptr noundef %0, ptr noundef %1, ptr noundef %2, ptr noundef %3) #0 {
  %5 = alloca ptr, align 8
  %6 = alloca ptr, align 8
  %7 = alloca ptr, align 8
  %8 = alloca ptr, align 8
  store ptr %0, ptr %5, align 8, !tbaa !4
  store ptr %1, ptr %6, align 8, !tbaa !70
  store ptr %2, ptr %7, align 8, !tbaa !167
  store ptr %3, ptr %8, align 8, !tbaa !1718
  %9 = load ptr, ptr %5, align 8, !tbaa !4
  %10 = load ptr, ptr %6, align 8, !tbaa !70
  %11 = load ptr, ptr %7, align 8, !tbaa !167
  %12 = load ptr, ptr %8, align 8, !tbaa !1718
  %13 = call i32 @cbs_sei_write_ambient_viewing_environment(ptr noundef %9, ptr noundef %10, ptr noundef %11, ptr noundef %12)
  ret i32 %13
}