; Function Attrs: nounwind uwtable
define internal range(i32 -2147483648, 1) i32 @cbs_sei_write_ambient_viewing_environment_internal(ptr noundef %0, ptr noundef %1, ptr noundef readonly captures(none) %2, ptr readnone captures(none) %3) #0 {
  tail call void @ff_cbs_trace_header(ptr noundef %0, ptr noundef nonnull @.str.1413) #11
  %5 = load i32, ptr %2, align 4, !tbaa !1855
  %6 = tail call i32 @ff_cbs_write_unsigned(ptr noundef %0, ptr noundef %1, i32 noundef 32, ptr noundef nonnull @.str.1414, ptr noundef null, i32 noundef %5, i32 noundef 1, i32 noundef -1) #11
  %7 = icmp sgt i32 %6, -1
  br i1 %7, label %8, label %cbs_sei_write_ambient_viewing_environment.exit

8:                                                ; preds = %4
  %9 = getelementptr inbounds nuw i8, ptr %2, i64 4
  %10 = load i16, ptr %9, align 4, !tbaa !1857
  %11 = zext i16 %10 to i32
  %12 = tail call i32 @ff_cbs_write_unsigned(ptr noundef %0, ptr noundef %1, i32 noundef 16, ptr noundef nonnull @.str.1415, ptr noundef null, i32 noundef %11, i32 noundef 0, i32 noundef 50000) #11
  %13 = icmp sgt i32 %12, -1
  br i1 %13, label %14, label %cbs_sei_write_ambient_viewing_environment.exit

14:                                               ; preds = %8
  %15 = getelementptr inbounds nuw i8, ptr %2, i64 6
  %16 = load i16, ptr %15, align 2, !tbaa !1858
  %17 = zext i16 %16 to i32
  %18 = tail call i32 @ff_cbs_write_unsigned(ptr noundef %0, ptr noundef %1, i32 noundef 16, ptr noundef nonnull @.str.1416, ptr noundef null, i32 noundef %17, i32 noundef 0, i32 noundef 50000) #11
  %spec.select.i = tail call i32 @llvm.smin.i32(i32 %18, i32 0)
  br label %cbs_sei_write_ambient_viewing_environment.exit

cbs_sei_write_ambient_viewing_environment.exit:   ; preds = %4, %8, %14
  %.1.i = phi i32 [ %12, %8 ], [ %6, %4 ], [ %spec.select.i, %14 ]
  ret i32 %.1.i
}